target datalayout = "e-m:e-p270:32:32-p271:32:32-p272:64:64-i64:64-i128:128-f80:128-n8:16:32:64-S128"
target triple = "x86_64-pc-linux-gnu"

%struct.DistanceValue = type { i32, double }

; Function Attrs: nounwind uwtable
define internal i32 @compare_distances(ptr noundef %0, ptr noundef %1) #0 {
  %3 = alloca i32, align 4
  %4 = alloca ptr, align 8
  %5 = alloca ptr, align 8
  %6 = alloca ptr, align 8
  %7 = alloca ptr, align 8
  %8 = alloca i32, align 4
  store ptr %0, ptr %4, align 8
  store ptr %1, ptr %5, align 8
  call void @llvm.lifetime.start.p0(i64 8, ptr %6) #8
  %9 = load ptr, ptr %4, align 8
  store ptr %9, ptr %6, align 8
  call void @llvm.lifetime.start.p0(i64 8, ptr %7) #8
  %10 = load ptr, ptr %5, align 8
  store ptr %10, ptr %7, align 8
  %11 = load ptr, ptr %6, align 8
  %12 = getelementptr inbounds nuw %struct.DistanceValue, ptr %11, i32 0, i32 1
  %13 = load double, ptr %12, align 8
  %14 = load ptr, ptr %7, align 8
  %15 = getelementptr inbounds nuw %struct.DistanceValue, ptr %14, i32 0, i32 1
  %16 = load double, ptr %15, align 8
  %17 = fcmp olt double %13, %16
  br i1 %17, label %18, label %19

18:                                               ; preds = %2
  store i32 1, ptr %3, align 4
  store i32 1, ptr %8, align 4
  br label %30

19:                                               ; preds = %2
  %20 = load ptr, ptr %6, align 8
  %21 = getelementptr inbounds nuw %struct.DistanceValue, ptr %20, i32 0, i32 1
  %22 = load double, ptr %21, align 8
  %23 = load ptr, ptr %7, align 8
  %24 = getelementptr inbounds nuw %struct.DistanceValue, ptr %23, i32 0, i32 1
  %25 = load double, ptr %24, align 8
  %26 = fcmp ogt double %22, %25
  br i1 %26, label %27, label %28

27:                                               ; preds = %19
  store i32 -1, ptr %3, align 4
  store i32 1, ptr %8, align 4
  br label %30

28:                                               ; preds = %19
  br label %29

29:                                               ; preds = %28
  store i32 0, ptr %3, align 4
  store i32 1, ptr %8, align 4
  br label %30

30:                                               ; preds = %29, %27, %18
  call void @llvm.lifetime.end.p0(i64 8, ptr %7) #8
  call void @llvm.lifetime.end.p0(i64 8, ptr %6) #8
  %31 = load i32, ptr %3, align 4
  ret i32 %31
}