; Function Attrs: mustprogress nofree norecurse nosync nounwind willreturn memory(argmem: read) uwtable
define internal range(i32 -1, 2) i32 @compare_distances(ptr noundef readonly captures(none) %0, ptr noundef readonly captures(none) %1) #3 {
  %3 = getelementptr inbounds nuw i8, ptr %0, i64 8
  %4 = load double, ptr %3, align 8
  %5 = getelementptr inbounds nuw i8, ptr %1, i64 8
  %6 = load double, ptr %5, align 8
  %7 = fcmp olt double %4, %6
  %8 = fcmp ogt double %4, %6
  %. = sext i1 %8 to i32
  %.0 = select i1 %7, i32 1, i32 %.
  ret i32 %.0
}